target datalayout = "e-m:e-p270:32:32-p271:32:32-p272:64:64-i64:64-i128:128-f80:128-n8:16:32:64-S128"
target triple = "x86_64-pc-linux-gnu"

%struct._packet_info = type { ptr, ptr, i32, i32, %struct.nstime_t, %struct.nstime_t, %struct.nstime_t, i8, ptr, ptr, ptr, ptr, %struct._address, %struct._address, %struct._address, %struct._address, %struct._address, %struct._address, i32, ptr, i8, [3 x i8], %struct.anon.1, i32, i32, i32, i32, ptr, i8, ptr, ptr, i16, i16, i32, i32, i16, i32, i32, ptr, ptr, ptr, i8, i8, i16, i16, i16, i32, i16, i16, ptr, ptr, ptr, ptr, ptr, i32, i32 }
%struct.nstime_t = type { i64, i32 }
%struct._address = type { i32, i32, ptr, ptr }
%struct.anon.1 = type { i8, [3 x i8] }
%struct._frame_data = type <{ i32, i32, i32, i32, i32, [4 x i8], i64, ptr, ptr, ptr, i8, i16, [5 x i8], %struct.nstime_t, %struct.nstime_t, i32, i32 }>
%struct.wg_session_t = type { i32, i32, i32, %struct.wg_initial_info_t, ptr }
%struct.wg_initial_info_t = type { %struct._address, %struct._address, i16, i16 }

@sessions = internal global ptr null, align 8
@.str.106 = private unnamed_addr constant [35 x i8] c"epan/dissectors/packet-wireguard.c\00", align 1
@.str.109 = private unnamed_addr constant [29 x i8] c"%s:%u: failed assertion \22%s\22\00", align 1
@.str.119 = private unnamed_addr constant [24 x i8] c"!((pinfo)->fd->visited)\00", align 1

; Function Attrs: inlinehint nounwind null_pointer_is_valid sspstrong uwtable
define internal zeroext i1 @addresses_equal(ptr noundef %0, ptr noundef %1) #8 {
  %3 = alloca i1, align 1
  %4 = alloca ptr, align 8
  %5 = alloca ptr, align 8
  store ptr %0, ptr %4, align 8
  store ptr %1, ptr %5, align 8
  %6 = load ptr, ptr %4, align 8
  %7 = getelementptr inbounds nuw %struct._address, ptr %6, i32 0, i32 0
  %8 = load i32, ptr %7, align 8
  %9 = load ptr, ptr %5, align 8
  %10 = getelementptr inbounds nuw %struct._address, ptr %9, i32 0, i32 0
  %11 = load i32, ptr %10, align 8
  %12 = icmp eq i32 %8, %11
  br i1 %12, label %13, label %40

13:                                               ; preds = %2
  %14 = load ptr, ptr %4, align 8
  %15 = getelementptr inbounds nuw %struct._address, ptr %14, i32 0, i32 1
  %16 = load i32, ptr %15, align 4
  %17 = load ptr, ptr %5, align 8
  %18 = getelementptr inbounds nuw %struct._address, ptr %17, i32 0, i32 1
  %19 = load i32, ptr %18, align 4
  %20 = icmp eq i32 %16, %19
  br i1 %20, label %21, label %40

21:                                               ; preds = %13
  %22 = load ptr, ptr %4, align 8
  %23 = getelementptr inbounds nuw %struct._address, ptr %22, i32 0, i32 1
  %24 = load i32, ptr %23, align 4
  %25 = icmp eq i32 %24, 0
  br i1 %25, label %39, label %26

26:                                               ; preds = %21
  %27 = load ptr, ptr %4, align 8
  %28 = getelementptr inbounds nuw %struct._address, ptr %27, i32 0, i32 2
  %29 = load ptr, ptr %28, align 8
  %30 = load ptr, ptr %5, align 8
  %31 = getelementptr inbounds nuw %struct._address, ptr %30, i32 0, i32 2
  %32 = load ptr, ptr %31, align 8
  %33 = load ptr, ptr %4, align 8
  %34 = getelementptr inbounds nuw %struct._address, ptr %33, i32 0, i32 1
  %35 = load i32, ptr %34, align 4
  %36 = sext i32 %35 to i64
  %37 = call i32 @memcmp(ptr noundef %29, ptr noundef %32, i64 noundef %36) #20
  %38 = icmp eq i32 %37, 0
  br i1 %38, label %39, label %40

39:                                               ; preds = %26, %21
  store i1 true, ptr %3, align 1
  br label %41

40:                                               ; preds = %26, %13, %2
  store i1 false, ptr %3, align 1
  br label %41

41:                                               ; preds = %40, %39
  %42 = load i1, ptr %3, align 1
  ret i1 %42
}

; Function Attrs: null_pointer_is_valid sspstrong uwtable
define internal ptr @wg_sessions_lookup_initiation(ptr noundef %0, i32 noundef %1) #0 {
  %3 = alloca ptr, align 8
  %4 = alloca ptr, align 8
  %5 = alloca i32, align 4
  %6 = alloca ptr, align 8
  %7 = alloca i32, align 4
  %8 = alloca ptr, align 8
  %9 = alloca ptr, align 8
  store ptr %0, ptr %4, align 8
  store i32 %1, ptr %5, align 4
  %10 = load ptr, ptr %4, align 8
  %11 = getelementptr inbounds nuw %struct._packet_info, ptr %10, i32 0, i32 8
  %12 = load ptr, ptr %11, align 8
  %13 = getelementptr inbounds nuw %struct._frame_data, ptr %12, i32 0, i32 11
  %14 = load i16, ptr %13, align 1
  %15 = lshr i16 %14, 3
  %16 = and i16 %15, 1
  %17 = zext i16 %16 to i32
  %18 = icmp ne i32 %17, 0
  br i1 %18, label %20, label %19

19:                                               ; preds = %2
  br label %22

20:                                               ; preds = %2
  call void (ptr, ...) @proto_report_dissector_bug(ptr noundef @.str.109, ptr noundef @.str.106, i32 noundef 1071, ptr noundef @.str.119) #22
  unreachable

21:                                               ; No predecessors!
  br label %22

22:                                               ; preds = %21, %19
  call void @llvm.lifetime.start.p0(i64 8, ptr %6) #19
  %23 = load ptr, ptr @sessions, align 8
  %24 = load i32, ptr %5, align 4
  %25 = zext i32 %24 to i64
  %26 = inttoptr i64 %25 to ptr
  %27 = call ptr @wmem_map_lookup(ptr noundef %23, ptr noundef %26)
  store ptr %27, ptr %6, align 8
  %28 = load ptr, ptr %6, align 8
  %29 = icmp ne ptr %28, null
  br i1 %29, label %31, label %30

30:                                               ; preds = %22
  store ptr null, ptr %3, align 8
  store i32 1, ptr %7, align 4
  br label %82

31:                                               ; preds = %22
  call void @llvm.lifetime.start.p0(i64 8, ptr %8) #19
  %32 = load ptr, ptr %6, align 8
  %33 = call ptr @wmem_list_tail(ptr noundef %32)
  store ptr %33, ptr %8, align 8
  br label %34

34:                                               ; preds = %76, %31
  %35 = load ptr, ptr %8, align 8
  %36 = icmp ne ptr %35, null
  br i1 %36, label %38, label %37

37:                                               ; preds = %34
  store i32 2, ptr %7, align 4
  br label %79

38:                                               ; preds = %34
  call void @llvm.lifetime.start.p0(i64 8, ptr %9) #19
  %39 = load ptr, ptr %8, align 8
  %40 = call ptr @wmem_list_frame_data(ptr noundef %39)
  store ptr %40, ptr %9, align 8
  %41 = load ptr, ptr %9, align 8
  %42 = getelementptr inbounds nuw %struct.wg_session_t, ptr %41, i32 0, i32 3
  %43 = getelementptr inbounds nuw %struct.wg_initial_info_t, ptr %42, i32 0, i32 2
  %44 = load i16, ptr %43, align 8
  %45 = zext i16 %44 to i32
  %46 = load ptr, ptr %4, align 8
  %47 = getelementptr inbounds nuw %struct._packet_info, ptr %46, i32 0, i32 25
  %48 = load i32, ptr %47, align 8
  %49 = icmp ne i32 %45, %48
  br i1 %49, label %57, label %50

50:                                               ; preds = %38
  %51 = load ptr, ptr %9, align 8
  %52 = getelementptr inbounds nuw %struct.wg_session_t, ptr %51, i32 0, i32 3
  %53 = getelementptr inbounds nuw %struct.wg_initial_info_t, ptr %52, i32 0, i32 0
  %54 = load ptr, ptr %4, align 8
  %55 = getelementptr inbounds nuw %struct._packet_info, ptr %54, i32 0, i32 17
  %56 = call zeroext i1 @addresses_equal(ptr noundef %53, ptr noundef %55)
  br i1 %56, label %58, label %57

57:                                               ; preds = %50, %38
  store i32 4, ptr %7, align 4
  br label %74

58:                                               ; preds = %50
  %59 = load ptr, ptr %9, align 8
  %60 = getelementptr inbounds nuw %struct.wg_session_t, ptr %59, i32 0, i32 2
  %61 = load i32, ptr %60, align 8
  %62 = icmp ne i32 %61, 0
  br i1 %62, label %63, label %72

63:                                               ; preds = %58
  %64 = load ptr, ptr %9, align 8
  %65 = getelementptr inbounds nuw %struct.wg_session_t, ptr %64, i32 0, i32 2
  %66 = load i32, ptr %65, align 8
  %67 = load ptr, ptr %4, align 8
  %68 = getelementptr inbounds nuw %struct._packet_info, ptr %67, i32 0, i32 3
  %69 = load i32, ptr %68, align 4
  %70 = icmp ne i32 %66, %69
  br i1 %70, label %71, label %72

71:                                               ; preds = %63
  store i32 4, ptr %7, align 4
  br label %74

72:                                               ; preds = %63, %58
  %73 = load ptr, ptr %9, align 8
  store ptr %73, ptr %3, align 8
  store i32 1, ptr %7, align 4
  br label %74

74:                                               ; preds = %72, %71, %57
  call void @llvm.lifetime.end.p0(i64 8, ptr %9) #19
  %75 = load i32, ptr %7, align 4
  switch i32 %75, label %79 [
    i32 4, label %76
  ]

76:                                               ; preds = %74
  %77 = load ptr, ptr %8, align 8
  %78 = call ptr @wmem_list_frame_prev(ptr noundef %77)
  store ptr %78, ptr %8, align 8
  br label %34, !llvm.loop !17

79:                                               ; preds = %74, %37
  call void @llvm.lifetime.end.p0(i64 8, ptr %8) #19
  %80 = load i32, ptr %7, align 4
  switch i32 %80, label %82 [
    i32 2, label %81
  ]

81:                                               ; preds = %79
  store ptr null, ptr %3, align 8
  store i32 1, ptr %7, align 4
  br label %82

82:                                               ; preds = %81, %79, %30
  call void @llvm.lifetime.end.p0(i64 8, ptr %6) #19
  %83 = load ptr, ptr %3, align 8
  ret ptr %83
}