; Function Attrs: null_pointer_is_valid sspstrong uwtable
define internal fastcc ptr @wg_sessions_lookup_initiation(ptr noundef readonly captures(none) %0, i32 noundef %1) unnamed_addr #0 {
  %3 = getelementptr inbounds nuw i8, ptr %0, i64 80
  %4 = load ptr, ptr %3, align 8
  %5 = getelementptr inbounds nuw i8, ptr %4, i64 57
  %6 = load i16, ptr %5, align 1
  %7 = and i16 %6, 8
  %.not = icmp eq i16 %7, 0
  br i1 %.not, label %9, label %8

8:                                                ; preds = %2
  tail call void (ptr, ...) @proto_report_dissector_bug(ptr noundef nonnull @.str.109, ptr noundef nonnull @.str.106, i32 noundef 1071, ptr noundef nonnull @.str.119) #21
  unreachable

9:                                                ; preds = %2
  %10 = load ptr, ptr @sessions, align 8
  %11 = zext i32 %1 to i64
  %12 = inttoptr i64 %11 to ptr
  %13 = tail call ptr @wmem_map_lookup(ptr noundef %10, ptr noundef %12)
  %.not23 = icmp eq ptr %13, null
  br i1 %.not23, label %addresses_equal.exit, label %14

14:                                               ; preds = %9
  %15 = tail call ptr @wmem_list_tail(ptr noundef nonnull %13)
  %16 = getelementptr inbounds nuw i8, ptr %0, i64 20
  %.not2434 = icmp eq ptr %15, null
  br i1 %.not2434, label %addresses_equal.exit, label %.lr.ph

.lr.ph:                                           ; preds = %14
  %17 = getelementptr inbounds nuw i8, ptr %0, i64 288
  %18 = getelementptr inbounds nuw i8, ptr %0, i64 232
  %19 = getelementptr inbounds nuw i8, ptr %0, i64 236
  %20 = getelementptr inbounds nuw i8, ptr %0, i64 240
  br label %21

21:                                               ; preds = %.lr.ph, %50
  %.01835 = phi ptr [ %15, %.lr.ph ], [ %51, %50 ]
  %22 = tail call ptr @wmem_list_frame_data(ptr noundef nonnull %.01835)
  %23 = getelementptr inbounds nuw i8, ptr %22, i64 64
  %24 = load i16, ptr %23, align 8
  %25 = zext i16 %24 to i32
  %26 = load i32, ptr %17, align 8
  %.not25 = icmp eq i32 %26, %25
  br i1 %.not25, label %27, label %50

27:                                               ; preds = %21
  %28 = getelementptr inbounds nuw i8, ptr %22, i64 16
  %29 = load i32, ptr %28, align 8
  %30 = load i32, ptr %18, align 8
  %31 = icmp eq i32 %29, %30
  br i1 %31, label %32, label %50

32:                                               ; preds = %27
  %33 = getelementptr inbounds nuw i8, ptr %22, i64 20
  %34 = load i32, ptr %33, align 4
  %35 = load i32, ptr %19, align 4
  %36 = icmp eq i32 %34, %35
  br i1 %36, label %37, label %50

37:                                               ; preds = %32
  %38 = icmp eq i32 %34, 0
  br i1 %38, label %45, label %39

39:                                               ; preds = %37
  %40 = getelementptr inbounds nuw i8, ptr %22, i64 24
  %41 = load ptr, ptr %40, align 8
  %42 = load ptr, ptr %20, align 8
  %43 = sext i32 %34 to i64
  %bcmp.i = tail call i32 @bcmp(ptr %41, ptr %42, i64 %43)
  %44 = icmp eq i32 %bcmp.i, 0
  br i1 %44, label %45, label %50

45:                                               ; preds = %39, %37
  %46 = getelementptr inbounds nuw i8, ptr %22, i64 8
  %47 = load i32, ptr %46, align 8
  %.not26 = icmp eq i32 %47, 0
  br i1 %.not26, label %addresses_equal.exit, label %48

48:                                               ; preds = %45
  %49 = load i32, ptr %16, align 4
  %.not27 = icmp eq i32 %47, %49
  br i1 %.not27, label %addresses_equal.exit, label %50

50:                                               ; preds = %21, %48, %27, %32, %39
  %51 = tail call ptr @wmem_list_frame_prev(ptr noundef nonnull %.01835)
  %.not24 = icmp eq ptr %51, null
  br i1 %.not24, label %addresses_equal.exit, label %21, !llvm.loop !28

addresses_equal.exit:                             ; preds = %48, %45, %50, %14, %9
  %.0 = phi ptr [ null, %9 ], [ null, %14 ], [ %22, %48 ], [ %22, %45 ], [ null, %50 ]
  ret ptr %.0
}